target datalayout = "e-m:e-p270:32:32-p271:32:32-p272:64:64-i64:64-i128:128-f80:128-n8:16:32:64-S128"
target triple = "x86_64-pc-linux-gnu"

%struct.BinaryUpgradeClassOidItem = type { i32, i8, i32, i32, i32, i32, i32 }

@nbinaryUpgradeClassOids = internal global i32 0, align 4
@binaryUpgradeClassOids = internal global ptr null, align 8

; Function Attrs: nounwind uwtable
define internal void @collectBinaryUpgradeClassOids(ptr noundef %0) #0 {
  %2 = alloca ptr, align 8
  %3 = alloca ptr, align 8
  %4 = alloca ptr, align 8
  %5 = alloca i32, align 4
  store ptr %0, ptr %2, align 8
  call void @llvm.lifetime.start.p0(i64 8, ptr %3) #10
  call void @llvm.lifetime.start.p0(i64 8, ptr %4) #10
  store ptr @.str.750, ptr %4, align 8
  %6 = load ptr, ptr %2, align 8
  %7 = load ptr, ptr %4, align 8
  %8 = call ptr @ExecuteSqlQuery(ptr noundef %6, ptr noundef %7, i32 noundef 2)
  store ptr %8, ptr %3, align 8
  %9 = load ptr, ptr %3, align 8
  %10 = call i32 @PQntuples(ptr noundef %9)
  store i32 %10, ptr @nbinaryUpgradeClassOids, align 4
  %11 = load i32, ptr @nbinaryUpgradeClassOids, align 4
  %12 = sext i32 %11 to i64
  %13 = mul i64 %12, 28
  %14 = call ptr @pg_malloc(i64 noundef %13)
  store ptr %14, ptr @binaryUpgradeClassOids, align 8
  call void @llvm.lifetime.start.p0(i64 4, ptr %5) #10
  store i32 0, ptr %5, align 4
  br label %15

15:                                               ; preds = %90, %1
  %16 = load i32, ptr %5, align 4
  %17 = load i32, ptr @nbinaryUpgradeClassOids, align 4
  %18 = icmp slt i32 %16, %17
  br i1 %18, label %20, label %19

19:                                               ; preds = %15
  call void @llvm.lifetime.end.p0(i64 4, ptr %5) #10
  br label %93

20:                                               ; preds = %15
  %21 = load ptr, ptr %3, align 8
  %22 = load i32, ptr %5, align 4
  %23 = call ptr @PQgetvalue(ptr noundef %21, i32 noundef %22, i32 noundef 0)
  %24 = call i64 @strtoul(ptr noundef %23, ptr noundef null, i32 noundef 10) #10
  %25 = trunc i64 %24 to i32
  %26 = load ptr, ptr @binaryUpgradeClassOids, align 8
  %27 = load i32, ptr %5, align 4
  %28 = sext i32 %27 to i64
  %29 = getelementptr inbounds %struct.BinaryUpgradeClassOidItem, ptr %26, i64 %28
  %30 = getelementptr inbounds nuw %struct.BinaryUpgradeClassOidItem, ptr %29, i32 0, i32 0
  store i32 %25, ptr %30, align 4
  %31 = load ptr, ptr %3, align 8
  %32 = load i32, ptr %5, align 4
  %33 = call ptr @PQgetvalue(ptr noundef %31, i32 noundef %32, i32 noundef 1)
  %34 = load i8, ptr %33, align 1
  %35 = load ptr, ptr @binaryUpgradeClassOids, align 8
  %36 = load i32, ptr %5, align 4
  %37 = sext i32 %36 to i64
  %38 = getelementptr inbounds %struct.BinaryUpgradeClassOidItem, ptr %35, i64 %37
  %39 = getelementptr inbounds nuw %struct.BinaryUpgradeClassOidItem, ptr %38, i32 0, i32 1
  store i8 %34, ptr %39, align 4
  %40 = load ptr, ptr %3, align 8
  %41 = load i32, ptr %5, align 4
  %42 = call ptr @PQgetvalue(ptr noundef %40, i32 noundef %41, i32 noundef 2)
  %43 = call i64 @strtoul(ptr noundef %42, ptr noundef null, i32 noundef 10) #10
  %44 = trunc i64 %43 to i32
  %45 = load ptr, ptr @binaryUpgradeClassOids, align 8
  %46 = load i32, ptr %5, align 4
  %47 = sext i32 %46 to i64
  %48 = getelementptr inbounds %struct.BinaryUpgradeClassOidItem, ptr %45, i64 %47
  %49 = getelementptr inbounds nuw %struct.BinaryUpgradeClassOidItem, ptr %48, i32 0, i32 2
  store i32 %44, ptr %49, align 4
  %50 = load ptr, ptr %3, align 8
  %51 = load i32, ptr %5, align 4
  %52 = call ptr @PQgetvalue(ptr noundef %50, i32 noundef %51, i32 noundef 3)
  %53 = call i64 @strtoul(ptr noundef %52, ptr noundef null, i32 noundef 10) #10
  %54 = trunc i64 %53 to i32
  %55 = load ptr, ptr @binaryUpgradeClassOids, align 8
  %56 = load i32, ptr %5, align 4
  %57 = sext i32 %56 to i64
  %58 = getelementptr inbounds %struct.BinaryUpgradeClassOidItem, ptr %55, i64 %57
  %59 = getelementptr inbounds nuw %struct.BinaryUpgradeClassOidItem, ptr %58, i32 0, i32 3
  store i32 %54, ptr %59, align 4
  %60 = load ptr, ptr %3, align 8
  %61 = load i32, ptr %5, align 4
  %62 = call ptr @PQgetvalue(ptr noundef %60, i32 noundef %61, i32 noundef 4)
  %63 = call i64 @strtoul(ptr noundef %62, ptr noundef null, i32 noundef 10) #10
  %64 = trunc i64 %63 to i32
  %65 = load ptr, ptr @binaryUpgradeClassOids, align 8
  %66 = load i32, ptr %5, align 4
  %67 = sext i32 %66 to i64
  %68 = getelementptr inbounds %struct.BinaryUpgradeClassOidItem, ptr %65, i64 %67
  %69 = getelementptr inbounds nuw %struct.BinaryUpgradeClassOidItem, ptr %68, i32 0, i32 4
  store i32 %64, ptr %69, align 4
  %70 = load ptr, ptr %3, align 8
  %71 = load i32, ptr %5, align 4
  %72 = call ptr @PQgetvalue(ptr noundef %70, i32 noundef %71, i32 noundef 5)
  %73 = call i64 @strtoul(ptr noundef %72, ptr noundef null, i32 noundef 10) #10
  %74 = trunc i64 %73 to i32
  %75 = load ptr, ptr @binaryUpgradeClassOids, align 8
  %76 = load i32, ptr %5, align 4
  %77 = sext i32 %76 to i64
  %78 = getelementptr inbounds %struct.BinaryUpgradeClassOidItem, ptr %75, i64 %77
  %79 = getelementptr inbounds nuw %struct.BinaryUpgradeClassOidItem, ptr %78, i32 0, i32 5
  store i32 %74, ptr %79, align 4
  %80 = load ptr, ptr %3, align 8
  %81 = load i32, ptr %5, align 4
  %82 = call ptr @PQgetvalue(ptr noundef %80, i32 noundef %81, i32 noundef 6)
  %83 = call i64 @strtoul(ptr noundef %82, ptr noundef null, i32 noundef 10) #10
  %84 = trunc i64 %83 to i32
  %85 = load ptr, ptr @binaryUpgradeClassOids, align 8
  %86 = load i32, ptr %5, align 4
  %87 = sext i32 %86 to i64
  %88 = getelementptr inbounds %struct.BinaryUpgradeClassOidItem, ptr %85, i64 %87
  %89 = getelementptr inbounds nuw %struct.BinaryUpgradeClassOidItem, ptr %88, i32 0, i32 6
  store i32 %84, ptr %89, align 4
  br label %90

90:                                               ; preds = %20
  %91 = load i32, ptr %5, align 4
  %92 = add i32 %91, 1
  store i32 %92, ptr %5, align 4
  br label %15, !llvm.loop !30

93:                                               ; preds = %19
  %94 = load ptr, ptr %3, align 8
  call void @PQclear(ptr noundef %94)
  call void @llvm.lifetime.end.p0(i64 8, ptr %4) #10
  call void @llvm.lifetime.end.p0(i64 8, ptr %3) #10
  ret void
}