; Function Attrs: nounwind uwtable
define internal fastcc void @collectBinaryUpgradeClassOids(ptr noundef %0) unnamed_addr #5 {
  %2 = tail call ptr @ExecuteSqlQuery(ptr noundef %0, ptr noundef nonnull @.str.750, i32 noundef 2) #14
  %3 = tail call i32 @PQntuples(ptr noundef %2) #14
  store i32 %3, ptr @nbinaryUpgradeClassOids, align 4
  %4 = sext i32 %3 to i64
  %5 = mul nsw i64 %4, 28
  %6 = tail call ptr @pg_malloc(i64 noundef %5) #14
  store ptr %6, ptr @binaryUpgradeClassOids, align 8
  %7 = load i32, ptr @nbinaryUpgradeClassOids, align 4
  %8 = icmp sgt i32 %7, 0
  br i1 %8, label %.lr.ph, label %._crit_edge

._crit_edge:                                      ; preds = %.lr.ph, %1
  tail call void @PQclear(ptr noundef %2) #14
  ret void

.lr.ph:                                           ; preds = %1, %.lr.ph
  %indvars.iv = phi i64 [ %indvars.iv.next, %.lr.ph ], [ 0, %1 ]
  %9 = trunc nuw nsw i64 %indvars.iv to i32
  %10 = tail call ptr @PQgetvalue(ptr noundef %2, i32 noundef %9, i32 noundef 0) #14
  %11 = tail call i64 @strtoul(ptr noundef captures(none) %10, ptr noundef null, i32 noundef 10) #14
  %12 = trunc i64 %11 to i32
  %13 = load ptr, ptr @binaryUpgradeClassOids, align 8
  %14 = getelementptr inbounds nuw %struct.BinaryUpgradeClassOidItem, ptr %13, i64 %indvars.iv
  store i32 %12, ptr %14, align 4
  %15 = tail call ptr @PQgetvalue(ptr noundef %2, i32 noundef %9, i32 noundef 1) #14
  %16 = load i8, ptr %15, align 1
  %17 = load ptr, ptr @binaryUpgradeClassOids, align 8
  %18 = getelementptr inbounds nuw %struct.BinaryUpgradeClassOidItem, ptr %17, i64 %indvars.iv, i32 1
  store i8 %16, ptr %18, align 4
  %19 = tail call ptr @PQgetvalue(ptr noundef %2, i32 noundef %9, i32 noundef 2) #14
  %20 = tail call i64 @strtoul(ptr noundef captures(none) %19, ptr noundef null, i32 noundef 10) #14
  %21 = trunc i64 %20 to i32
  %22 = load ptr, ptr @binaryUpgradeClassOids, align 8
  %23 = getelementptr inbounds nuw %struct.BinaryUpgradeClassOidItem, ptr %22, i64 %indvars.iv, i32 2
  store i32 %21, ptr %23, align 4
  %24 = tail call ptr @PQgetvalue(ptr noundef %2, i32 noundef %9, i32 noundef 3) #14
  %25 = tail call i64 @strtoul(ptr noundef captures(none) %24, ptr noundef null, i32 noundef 10) #14
  %26 = trunc i64 %25 to i32
  %27 = load ptr, ptr @binaryUpgradeClassOids, align 8
  %28 = getelementptr inbounds nuw %struct.BinaryUpgradeClassOidItem, ptr %27, i64 %indvars.iv, i32 3
  store i32 %26, ptr %28, align 4
  %29 = tail call ptr @PQgetvalue(ptr noundef %2, i32 noundef %9, i32 noundef 4) #14
  %30 = tail call i64 @strtoul(ptr noundef captures(none) %29, ptr noundef null, i32 noundef 10) #14
  %31 = trunc i64 %30 to i32
  %32 = load ptr, ptr @binaryUpgradeClassOids, align 8
  %33 = getelementptr inbounds nuw %struct.BinaryUpgradeClassOidItem, ptr %32, i64 %indvars.iv, i32 4
  store i32 %31, ptr %33, align 4
  %34 = tail call ptr @PQgetvalue(ptr noundef %2, i32 noundef %9, i32 noundef 5) #14
  %35 = tail call i64 @strtoul(ptr noundef captures(none) %34, ptr noundef null, i32 noundef 10) #14
  %36 = trunc i64 %35 to i32
  %37 = load ptr, ptr @binaryUpgradeClassOids, align 8
  %38 = getelementptr inbounds nuw %struct.BinaryUpgradeClassOidItem, ptr %37, i64 %indvars.iv, i32 5
  store i32 %36, ptr %38, align 4
  %39 = tail call ptr @PQgetvalue(ptr noundef %2, i32 noundef %9, i32 noundef 6) #14
  %40 = tail call i64 @strtoul(ptr noundef captures(none) %39, ptr noundef null, i32 noundef 10) #14
  %41 = trunc i64 %40 to i32
  %42 = load ptr, ptr @binaryUpgradeClassOids, align 8
  %43 = getelementptr inbounds nuw %struct.BinaryUpgradeClassOidItem, ptr %42, i64 %indvars.iv, i32 6
  store i32 %41, ptr %43, align 4
  %indvars.iv.next = add nuw nsw i64 %indvars.iv, 1
  %44 = load i32, ptr @nbinaryUpgradeClassOids, align 4
  %45 = sext i32 %44 to i64
  %46 = icmp slt i64 %indvars.iv.next, %45
  br i1 %46, label %.lr.ph, label %._crit_edge, !llvm.loop !50
}